target datalayout = "e-m:e-p270:32:32-p271:32:32-p272:64:64-i64:64-i128:128-f80:128-n8:16:32:64-S128"
target triple = "x86_64-pc-linux-gnu"

@invalid_page_tab = internal global ptr null, align 8

; Function Attrs: nounwind uwtable
define dso_local zeroext i1 @XLogHaveInvalidPages() #0 {
  %1 = alloca i1, align 1
  %2 = load ptr, ptr @invalid_page_tab, align 8
  %3 = icmp ne ptr %2, null
  br i1 %3, label %4, label %9

4:                                                ; preds = %0
  %5 = load ptr, ptr @invalid_page_tab, align 8
  %6 = call i64 @hash_get_num_entries(ptr noundef %5)
  %7 = icmp sgt i64 %6, 0
  br i1 %7, label %8, label %9

8:                                                ; preds = %4
  store i1 true, ptr %1, align 1
  br label %10

9:                                                ; preds = %4, %0
  store i1 false, ptr %1, align 1
  br label %10

10:                                               ; preds = %9, %8
  %11 = load i1, ptr %1, align 1
  ret i1 %11
}