; Function Attrs: nounwind uwtable
define dso_local noundef zeroext i1 @XLogHaveInvalidPages() local_unnamed_addr #0 {
  %1 = load ptr, ptr @invalid_page_tab, align 8
  %.not = icmp eq ptr %1, null
  br i1 %.not, label %5, label %2

2:                                                ; preds = %0
  %3 = tail call i64 @hash_get_num_entries(ptr noundef nonnull %1) #8
  %4 = icmp sgt i64 %3, 0
  br i1 %4, label %6, label %5

5:                                                ; preds = %2, %0
  br label %6

6:                                                ; preds = %2, %5
  %.0 = phi i1 [ false, %5 ], [ true, %2 ]
  ret i1 %.0
}